; Function Attrs: nounwind uwtable
define internal noundef i32 @exclude_cb(ptr noundef readonly captures(none) %0, ptr noundef %1, i32 noundef %2) #0 {
  %.not = icmp eq i32 %2, 0
  br i1 %.not, label %5, label %4

4:                                                ; preds = %3
  tail call void (ptr, i32, ptr, ...) @BUG_fl(ptr noundef nonnull @.str.28, i32 noundef 157, ptr noundef nonnull @.str.29) #17
  unreachable

5:                                                ; preds = %3
  %6 = getelementptr inbounds nuw i8, ptr %0, i64 16
  %7 = load ptr, ptr %6, align 8, !tbaa !18
  %8 = tail call ptr @string_list_append(ptr noundef %7, ptr noundef %1) #16
  ret i32 0
}